
bsp.elf:     file format elf32-littlearm


Disassembly of section .text:

87800000 <_start>:
87800000:	e10f0000 	mrs	r0, CPSR
87800004:	e3c0001f 	bic	r0, r0, #31
87800008:	e3800013 	orr	r0, r0, #19
8780000c:	e129f000 	msr	CPSR_fc, r0
87800010:	e51fd000 	ldr	sp, [pc, #-0]	@ 87800018 <_start+0x18>
87800014:	ea000007 	b	87800038 <main>
87800018:	80200000 	eorhi	r0, r0, r0
8780001c:	00001941 	andeq	r1, r0, r1, asr #18
87800020:	61656100 	cmnvs	r5, r0, lsl #2
87800024:	01006962 	tsteq	r0, r2, ror #18
87800028:	0000000f 	andeq	r0, r0, pc
8780002c:	00543505 	subseq	r3, r4, r5, lsl #10
87800030:	01080306 	tsteq	r8, r6, lsl #6
87800034:	00000109 	andeq	r0, r0, r9, lsl #2

87800038 <main>:
87800038:	e92d4070 	push	{r4, r5, r6, lr}
8780003c:	e3a06000 	mov	r6, #0
87800040:	eb00005c 	bl	878001b8 <imx6u_clkinit>
87800044:	e1a05006 	mov	r5, r6
87800048:	eb00004f 	bl	8780018c <clk_init>
8780004c:	eb000028 	bl	878000f4 <led_init>
87800050:	eb00010d 	bl	8780048c <key_init>
87800054:	ea000009 	b	87800080 <main+0x48>
87800058:	e2844001 	add	r4, r4, #1
8780005c:	e3540032 	cmp	r4, #50	@ 0x32
87800060:	1a000004 	bne	87800078 <main+0x40>
87800064:	e2255001 	eor	r5, r5, #1
87800068:	e3a00000 	mov	r0, #0
8780006c:	e1a01005 	mov	r1, r5
87800070:	eb00003b 	bl	87800164 <led_switch>
87800074:	e3a04000 	mov	r4, #0
87800078:	e3a0000a 	mov	r0, #10
8780007c:	eb00009a 	bl	878002ec <delay>
87800080:	eb000113 	bl	878004d4 <key_get_value>
87800084:	e3500001 	cmp	r0, #1
87800088:	1afffff2 	bne	87800058 <main+0x20>
8780008c:	e2266001 	eor	r6, r6, #1
87800090:	e1a00006 	mov	r0, r6
87800094:	eb0000cb 	bl	878003c8 <beep_switch>
87800098:	eaffffee 	b	87800058 <main+0x20>
8780009c:	3a434347 	bcc	888d0dc0 <__bss_end+0x10d087b>
878000a0:	62552820 	subsvs	r2, r5, #32, 16	@ 0x200000
878000a4:	75746e75 	ldrbvc	r6, [r4, #-3701]!	@ 0xfffff18b
878000a8:	2e333120 	rsfcssp	f3, f3, f0
878000ac:	2d302e33 	ldccs	14, cr2, [r0, #-204]!	@ 0xffffff34
878000b0:	75627536 	strbvc	r7, [r2, #-1334]!	@ 0xfffffaca
878000b4:	3275746e 	rsbscc	r7, r5, #1845493760	@ 0x6e000000
878000b8:	2e34327e 	mrccs	2, 1, r3, cr4, cr14, {3}
878000bc:	20293430 	eorcs	r3, r9, r0, lsr r4
878000c0:	332e3331 			@ <UNDEFINED> instruction: 0x332e3331
878000c4:	4100302e 	tstmi	r0, lr, lsr #32
878000c8:	00000029 	andeq	r0, r0, r9, lsr #32
878000cc:	62616561 	rsbvs	r6, r1, #406847488	@ 0x18400000
878000d0:	1f010069 	svcne	0x00010069
878000d4:	05000000 	streq	r0, [r0, #-0]
878000d8:	06005435 			@ <UNDEFINED> instruction: 0x06005435
878000dc:	09010803 	stmdbeq	r1, {r0, r1, fp}
878000e0:	14041201 	strne	r1, [r4], #-513	@ 0xfffffdff
878000e4:	17011501 	strne	r1, [r1, -r1, lsl #10]
878000e8:	19011803 	stmdbne	r1, {r0, r1, fp, ip}
878000ec:	1e021a01 	vmlane.f32	s2, s4, s2
878000f0:	00000002 	andeq	r0, r0, r2

878000f4 <led_init>:
878000f4:	e3a00005 	mov	r0, #5
878000f8:	e59f2028 	ldr	r2, [pc, #40]	@ 87800128 <led_init+0x34>
878000fc:	e59f1028 	ldr	r1, [pc, #40]	@ 8780012c <led_init+0x38>
87800100:	e59f3028 	ldr	r3, [pc, #40]	@ 87800130 <led_init+0x3c>
87800104:	e5820068 	str	r0, [r2, #104]	@ 0x68
87800108:	e58212f4 	str	r1, [r2, #756]	@ 0x2f4
8780010c:	e5932004 	ldr	r2, [r3, #4]
87800110:	e3822008 	orr	r2, r2, #8
87800114:	e5832004 	str	r2, [r3, #4]
87800118:	e5932000 	ldr	r2, [r3]
8780011c:	e3c22008 	bic	r2, r2, #8
87800120:	e5832000 	str	r2, [r3]
87800124:	e12fff1e 	bx	lr
87800128:	020e0000 	andeq	r0, lr, #0
8780012c:	000010b0 	strheq	r1, [r0], -r0
87800130:	0209c000 	andeq	ip, r9, #0

87800134 <led_on>:
87800134:	e59f200c 	ldr	r2, [pc, #12]	@ 87800148 <led_on+0x14>
87800138:	e5923000 	ldr	r3, [r2]
8780013c:	e3c33008 	bic	r3, r3, #8
87800140:	e5823000 	str	r3, [r2]
87800144:	e12fff1e 	bx	lr
87800148:	0209c000 	andeq	ip, r9, #0

8780014c <led_off>:
8780014c:	e59f200c 	ldr	r2, [pc, #12]	@ 87800160 <led_off+0x14>
87800150:	e5923000 	ldr	r3, [r2]
87800154:	e3833008 	orr	r3, r3, #8
87800158:	e5823000 	str	r3, [r2]
8780015c:	e12fff1e 	bx	lr
87800160:	0209c000 	andeq	ip, r9, #0

87800164 <led_switch>:
87800164:	e3500000 	cmp	r0, #0
87800168:	112fff1e 	bxne	lr
8780016c:	e59f2014 	ldr	r2, [pc, #20]	@ 87800188 <led_switch+0x24>
87800170:	e3510001 	cmp	r1, #1
87800174:	e5923000 	ldr	r3, [r2]
87800178:	03c33008 	biceq	r3, r3, #8
8780017c:	13833008 	orrne	r3, r3, #8
87800180:	e5823000 	str	r3, [r2]
87800184:	e12fff1e 	bx	lr
87800188:	0209c000 	andeq	ip, r9, #0

8780018c <clk_init>:
8780018c:	e3e02000 	mvn	r2, #0
87800190:	e59f301c 	ldr	r3, [pc, #28]	@ 878001b4 <clk_init+0x28>
87800194:	e5832068 	str	r2, [r3, #104]	@ 0x68
87800198:	e583206c 	str	r2, [r3, #108]	@ 0x6c
8780019c:	e5832070 	str	r2, [r3, #112]	@ 0x70
878001a0:	e5832074 	str	r2, [r3, #116]	@ 0x74
878001a4:	e5832078 	str	r2, [r3, #120]	@ 0x78
878001a8:	e583207c 	str	r2, [r3, #124]	@ 0x7c
878001ac:	e5832080 	str	r2, [r3, #128]	@ 0x80
878001b0:	e12fff1e 	bx	lr
878001b4:	020c4000 	andeq	r4, ip, #0

878001b8 <imx6u_clkinit>:
878001b8:	e59f30dc 	ldr	r3, [pc, #220]	@ 8780029c <imx6u_clkinit+0xe4>
878001bc:	e52de004 	push	{lr}		@ (str lr, [sp, #-4]!)
878001c0:	e593200c 	ldr	r2, [r3, #12]
878001c4:	e3120004 	tst	r2, #4
878001c8:	1a000005 	bne	878001e4 <imx6u_clkinit+0x2c>
878001cc:	e593200c 	ldr	r2, [r3, #12]
878001d0:	e3c22c01 	bic	r2, r2, #256	@ 0x100
878001d4:	e583200c 	str	r2, [r3, #12]
878001d8:	e593200c 	ldr	r2, [r3, #12]
878001dc:	e3822004 	orr	r2, r2, #4
878001e0:	e583200c 	str	r2, [r3, #12]
878001e4:	e3a0ca02 	mov	ip, #8192	@ 0x2000
878001e8:	e59f20b0 	ldr	r2, [pc, #176]	@ 878002a0 <imx6u_clkinit+0xe8>
878001ec:	e59f30a8 	ldr	r3, [pc, #168]	@ 8780029c <imx6u_clkinit+0xe4>
878001f0:	e582c000 	str	ip, [r2]
878001f4:	e593c00c 	ldr	ip, [r3, #12]
878001f8:	e59fe0a4 	ldr	lr, [pc, #164]	@ 878002a4 <imx6u_clkinit+0xec>
878001fc:	e3ccc004 	bic	ip, ip, #4
87800200:	e583c00c 	str	ip, [r3, #12]
87800204:	e593c010 	ldr	ip, [r3, #16]
87800208:	e59f0098 	ldr	r0, [pc, #152]	@ 878002a8 <imx6u_clkinit+0xf0>
8780020c:	e38cc001 	orr	ip, ip, #1
87800210:	e583c010 	str	ip, [r3, #16]
87800214:	e592c100 	ldr	ip, [r2, #256]	@ 0x100
87800218:	e59f108c 	ldr	r1, [pc, #140]	@ 878002ac <imx6u_clkinit+0xf4>
8780021c:	e00cc00e 	and	ip, ip, lr
87800220:	e18c0000 	orr	r0, ip, r0
87800224:	e5820100 	str	r0, [r2, #256]	@ 0x100
87800228:	e59200f0 	ldr	r0, [r2, #240]	@ 0xf0
8780022c:	e000000e 	and	r0, r0, lr
87800230:	e1801001 	orr	r1, r0, r1
87800234:	e58210f0 	str	r1, [r2, #240]	@ 0xf0
87800238:	e5932018 	ldr	r2, [r3, #24]
8780023c:	e3c22703 	bic	r2, r2, #786432	@ 0xc0000
87800240:	e5832018 	str	r2, [r3, #24]
87800244:	e5932018 	ldr	r2, [r3, #24]
87800248:	e3822701 	orr	r2, r2, #262144	@ 0x40000
8780024c:	e5832018 	str	r2, [r3, #24]
87800250:	e5932014 	ldr	r2, [r3, #20]
87800254:	e3c22402 	bic	r2, r2, #33554432	@ 0x2000000
87800258:	e5832014 	str	r2, [r3, #20]
8780025c:	e5932048 	ldr	r2, [r3, #72]	@ 0x48
87800260:	e3120020 	tst	r2, #32
87800264:	1afffffc 	bne	8780025c <imx6u_clkinit+0xa4>
87800268:	e5932014 	ldr	r2, [r3, #20]
8780026c:	e3c22c03 	bic	r2, r2, #768	@ 0x300
87800270:	e5832014 	str	r2, [r3, #20]
87800274:	e5932014 	ldr	r2, [r3, #20]
87800278:	e3822c01 	orr	r2, r2, #256	@ 0x100
8780027c:	e5832014 	str	r2, [r3, #20]
87800280:	e593201c 	ldr	r2, [r3, #28]
87800284:	e3c22040 	bic	r2, r2, #64	@ 0x40
87800288:	e583201c 	str	r2, [r3, #28]
8780028c:	e593201c 	ldr	r2, [r3, #28]
87800290:	e3c22007 	bic	r2, r2, #7
87800294:	e583201c 	str	r2, [r3, #28]
87800298:	e49df004 	pop	{pc}		@ (ldr pc, [sp], #4)
8780029c:	020c4000 	andeq	r4, ip, #0
878002a0:	020c8000 	andeq	r8, ip, #0
878002a4:	c0c0c0c0 	sbcgt	ip, r0, r0, asr #1
878002a8:	2018101b 	andscs	r1, r8, fp, lsl r0
878002ac:	1311100c 	tstne	r1, #12

878002b0 <delay_short>:
878002b0:	e3a03000 	mov	r3, #0
878002b4:	e24dd008 	sub	sp, sp, #8
878002b8:	e58d3004 	str	r3, [sp, #4]
878002bc:	e59d3004 	ldr	r3, [sp, #4]
878002c0:	e1500003 	cmp	r0, r3
878002c4:	9a000006 	bls	878002e4 <delay_short+0x34>
878002c8:	e1a00000 	nop			@ (mov r0, r0)
878002cc:	e59d3004 	ldr	r3, [sp, #4]
878002d0:	e2833001 	add	r3, r3, #1
878002d4:	e58d3004 	str	r3, [sp, #4]
878002d8:	e59d3004 	ldr	r3, [sp, #4]
878002dc:	e1530000 	cmp	r3, r0
878002e0:	3afffff8 	bcc	878002c8 <delay_short+0x18>
878002e4:	e28dd008 	add	sp, sp, #8
878002e8:	e12fff1e 	bx	lr

878002ec <delay>:
878002ec:	e3a01000 	mov	r1, #0
878002f0:	e24dd008 	sub	sp, sp, #8
878002f4:	e58d1000 	str	r1, [sp]
878002f8:	e59d3000 	ldr	r3, [sp]
878002fc:	e1500003 	cmp	r0, r3
87800300:	9a000011 	bls	8780034c <delay+0x60>
87800304:	e59f2048 	ldr	r2, [pc, #72]	@ 87800354 <delay+0x68>
87800308:	e58d1004 	str	r1, [sp, #4]
8780030c:	e59d3004 	ldr	r3, [sp, #4]
87800310:	e1530002 	cmp	r3, r2
87800314:	8a000006 	bhi	87800334 <delay+0x48>
87800318:	e1a00000 	nop			@ (mov r0, r0)
8780031c:	e59d3004 	ldr	r3, [sp, #4]
87800320:	e2833001 	add	r3, r3, #1
87800324:	e58d3004 	str	r3, [sp, #4]
87800328:	e59d3004 	ldr	r3, [sp, #4]
8780032c:	e1530002 	cmp	r3, r2
87800330:	9afffff8 	bls	87800318 <delay+0x2c>
87800334:	e59d3000 	ldr	r3, [sp]
87800338:	e2833001 	add	r3, r3, #1
8780033c:	e58d3000 	str	r3, [sp]
87800340:	e59d3000 	ldr	r3, [sp]
87800344:	e1530000 	cmp	r3, r0
87800348:	3affffee 	bcc	87800308 <delay+0x1c>
8780034c:	e28dd008 	add	sp, sp, #8
87800350:	e12fff1e 	bx	lr
87800354:	000007fe 	strdeq	r0, [r0], -lr

87800358 <beep_init>:
87800358:	e3a00005 	mov	r0, #5
8780035c:	e59f2028 	ldr	r2, [pc, #40]	@ 8780038c <beep_init+0x34>
87800360:	e59f1028 	ldr	r1, [pc, #40]	@ 87800390 <beep_init+0x38>
87800364:	e59f3028 	ldr	r3, [pc, #40]	@ 87800394 <beep_init+0x3c>
87800368:	e582000c 	str	r0, [r2, #12]
8780036c:	e5821050 	str	r1, [r2, #80]	@ 0x50
87800370:	e5932004 	ldr	r2, [r3, #4]
87800374:	e3822002 	orr	r2, r2, #2
87800378:	e5832004 	str	r2, [r3, #4]
8780037c:	e5932000 	ldr	r2, [r3]
87800380:	e3c22002 	bic	r2, r2, #2
87800384:	e5832000 	str	r2, [r3]
87800388:	e12fff1e 	bx	lr
8780038c:	02290000 	eoreq	r0, r9, #0
87800390:	000010b0 	strheq	r1, [r0], -r0
87800394:	020ac000 	andeq	ip, sl, #0

87800398 <beep_on>:
87800398:	e59f200c 	ldr	r2, [pc, #12]	@ 878003ac <beep_on+0x14>
8780039c:	e5923000 	ldr	r3, [r2]
878003a0:	e3c33002 	bic	r3, r3, #2
878003a4:	e5823000 	str	r3, [r2]
878003a8:	e12fff1e 	bx	lr
878003ac:	020ac000 	andeq	ip, sl, #0

878003b0 <beep_off>:
878003b0:	e59f200c 	ldr	r2, [pc, #12]	@ 878003c4 <beep_off+0x14>
878003b4:	e5923000 	ldr	r3, [r2]
878003b8:	e3833002 	orr	r3, r3, #2
878003bc:	e5823000 	str	r3, [r2]
878003c0:	e12fff1e 	bx	lr
878003c4:	020ac000 	andeq	ip, sl, #0

878003c8 <beep_switch>:
878003c8:	e59f2014 	ldr	r2, [pc, #20]	@ 878003e4 <beep_switch+0x1c>
878003cc:	e3500001 	cmp	r0, #1
878003d0:	e5923000 	ldr	r3, [r2]
878003d4:	03c33002 	biceq	r3, r3, #2
878003d8:	13833002 	orrne	r3, r3, #2
878003dc:	e5823000 	str	r3, [r2]
878003e0:	e12fff1e 	bx	lr
878003e4:	020ac000 	andeq	ip, sl, #0

878003e8 <gpio_init>:
878003e8:	e5923000 	ldr	r3, [r2]
878003ec:	e3530001 	cmp	r3, #1
878003f0:	0a000005 	beq	8780040c <gpio_init+0x24>
878003f4:	e3530000 	cmp	r3, #0
878003f8:	03a02001 	moveq	r2, #1
878003fc:	05903004 	ldreq	r3, [r0, #4]
87800400:	01c33112 	biceq	r3, r3, r2, lsl r1
87800404:	05803004 	streq	r3, [r0, #4]
87800408:	e12fff1e 	bx	lr
8780040c:	e590c004 	ldr	ip, [r0, #4]
87800410:	e1a01113 	lsl	r1, r3, r1
87800414:	e18c3001 	orr	r3, ip, r1
87800418:	e5803004 	str	r3, [r0, #4]
8780041c:	e5d23004 	ldrb	r3, [r2, #4]
87800420:	e3530000 	cmp	r3, #0
87800424:	1a000003 	bne	87800438 <gpio_init+0x50>
87800428:	e5903000 	ldr	r3, [r0]
8780042c:	e1c33001 	bic	r3, r3, r1
87800430:	e5803000 	str	r3, [r0]
87800434:	e12fff1e 	bx	lr
87800438:	e3530001 	cmp	r3, #1
8780043c:	05903000 	ldreq	r3, [r0]
87800440:	01813003 	orreq	r3, r1, r3
87800444:	05803000 	streq	r3, [r0]
87800448:	e12fff1e 	bx	lr

8780044c <gpio_read>:
8780044c:	e5900000 	ldr	r0, [r0]
87800450:	e1a00130 	lsr	r0, r0, r1
87800454:	e2000001 	and	r0, r0, #1
87800458:	e12fff1e 	bx	lr

8780045c <gpio_write>:
8780045c:	e3520000 	cmp	r2, #0
87800460:	1a000004 	bne	87800478 <gpio_write+0x1c>
87800464:	e3a02001 	mov	r2, #1
87800468:	e5903000 	ldr	r3, [r0]
8780046c:	e1c33112 	bic	r3, r3, r2, lsl r1
87800470:	e5803000 	str	r3, [r0]
87800474:	e12fff1e 	bx	lr
87800478:	e3520001 	cmp	r2, #1
8780047c:	05903000 	ldreq	r3, [r0]
87800480:	01833112 	orreq	r3, r3, r2, lsl r1
87800484:	05803000 	streq	r3, [r0]
87800488:	e12fff1e 	bx	lr

8780048c <key_init>:
8780048c:	e92d4010 	push	{r4, lr}
87800490:	e3a04005 	mov	r4, #5
87800494:	e3a0c000 	mov	ip, #0
87800498:	e59f3028 	ldr	r3, [pc, #40]	@ 878004c8 <key_init+0x3c>
8780049c:	e59fe028 	ldr	lr, [pc, #40]	@ 878004cc <key_init+0x40>
878004a0:	e24dd008 	sub	sp, sp, #8
878004a4:	e3a01012 	mov	r1, #18
878004a8:	e583408c 	str	r4, [r3, #140]	@ 0x8c
878004ac:	e1a0200d 	mov	r2, sp
878004b0:	e583e318 	str	lr, [r3, #792]	@ 0x318
878004b4:	e59f0014 	ldr	r0, [pc, #20]	@ 878004d0 <key_init+0x44>
878004b8:	e58dc000 	str	ip, [sp]
878004bc:	ebffffc9 	bl	878003e8 <gpio_init>
878004c0:	e28dd008 	add	sp, sp, #8
878004c4:	e8bd8010 	pop	{r4, pc}
878004c8:	020e0000 	andeq	r0, lr, #0
878004cc:	0000f080 	andeq	pc, r0, r0, lsl #1
878004d0:	0209c000 	andeq	ip, r9, #0

878004d4 <key_get_value>:
878004d4:	e92d4070 	push	{r4, r5, r6, lr}
878004d8:	e59f405c 	ldr	r4, [pc, #92]	@ 8780053c <key_get_value+0x68>
878004dc:	e5d43000 	ldrb	r3, [r4]
878004e0:	e3530001 	cmp	r3, #1
878004e4:	0a000006 	beq	87800504 <key_get_value+0x30>
878004e8:	e3a01012 	mov	r1, #18
878004ec:	e59f004c 	ldr	r0, [pc, #76]	@ 87800540 <key_get_value+0x6c>
878004f0:	ebffffd5 	bl	8780044c <gpio_read>
878004f4:	e3500001 	cmp	r0, #1
878004f8:	05c40000 	strbeq	r0, [r4]
878004fc:	e3a00000 	mov	r0, #0
87800500:	e8bd8070 	pop	{r4, r5, r6, pc}
87800504:	e3a01012 	mov	r1, #18
87800508:	e59f0030 	ldr	r0, [pc, #48]	@ 87800540 <key_get_value+0x6c>
8780050c:	ebffffce 	bl	8780044c <gpio_read>
87800510:	e2505000 	subs	r5, r0, #0
87800514:	1afffff3 	bne	878004e8 <key_get_value+0x14>
87800518:	e3a0000a 	mov	r0, #10
8780051c:	ebffff72 	bl	878002ec <delay>
87800520:	e3a01012 	mov	r1, #18
87800524:	e59f0014 	ldr	r0, [pc, #20]	@ 87800540 <key_get_value+0x6c>
87800528:	e5c45000 	strb	r5, [r4]
8780052c:	ebffffc6 	bl	8780044c <gpio_read>
87800530:	e16f0f10 	clz	r0, r0
87800534:	e1a002a0 	lsr	r0, r0, #5
87800538:	e8bd8070 	pop	{r4, r5, r6, pc}
8780053c:	87800544 	strhi	r0, [r0, r4, asr #10]
87800540:	0209c000 	andeq	ip, r9, #0

Disassembly of section .data:

87800544 <release.0>:
87800544:	Address 0x87800544 is out of bounds.


Disassembly of section .comment:

00000000 <.comment>:
   0:	3a434347 	bcc	10d0d24 <_start-0x8672f2dc>
   4:	62552820 	subsvs	r2, r5, #32, 16	@ 0x200000
   8:	75746e75 	ldrbvc	r6, [r4, #-3701]!	@ 0xfffff18b
   c:	2e333120 	rsfcssp	f3, f3, f0
  10:	2d302e33 	ldccs	14, cr2, [r0, #-204]!	@ 0xffffff34
  14:	75627536 	strbvc	r7, [r2, #-1334]!	@ 0xfffffaca
  18:	3275746e 	rsbscc	r7, r5, #1845493760	@ 0x6e000000
  1c:	2e34327e 	mrccs	2, 1, r3, cr4, cr14, {3}
  20:	20293430 	eorcs	r3, r9, r0, lsr r4
  24:	332e3331 			@ <UNDEFINED> instruction: 0x332e3331
  28:	Address 0x28 is out of bounds.


Disassembly of section .ARM.attributes:

00000000 <.ARM.attributes>:
   0:	00002541 	andeq	r2, r0, r1, asr #10
   4:	61656100 	cmnvs	r5, r0, lsl #2
   8:	01006962 	tsteq	r0, r2, ror #18
   c:	0000001b 	andeq	r0, r0, fp, lsl r0
  10:	00543505 	subseq	r3, r4, r5, lsl #10
  14:	01080306 	tsteq	r8, r6, lsl #6
  18:	04120109 	ldreq	r0, [r2], #-265	@ 0xfffffef7
  1c:	01150114 	tsteq	r5, r4, lsl r1
  20:	01180317 	tsteq	r8, r7, lsl r3
  24:	Address 0x24 is out of bounds.

